
bin/e-task.elf:     file format elf32-epiphany


Disassembly of section ivt_reset:

00000000 <_start>:
   0:	2ce8 0000 	b 58 <.normal_start>

Disassembly of section .reserved_crt0:

00000058 <.normal_start>:
  58:	720b 0072 	mov r3,0x790
  5c:	600b 1002 	movt r3,0x0
  60:	0d52      	jalr r3
	...

Disassembly of section NEW_LIB_RO:

00000064 <_exit>:
  64:	965c 0700 	str r4,[sp],-0x4
  68:	548b 0002 	mov r2,0xa4
  6c:	2003      	mov r1,0x0
  6e:	400b 1002 	movt r2,0x0
  72:	76dc 2400 	str fp,[sp,+0x5]
  76:	d5dc 2400 	str lr,[sp,+0x3]
  7a:	80e2      	mov r4,r0
  7c:	0952      	jalr r2
  7e:	140b 0002 	mov r0,0xa0
  82:	000b 1002 	movt r0,0x0
  86:	0044      	ldr r0,[r0]
  88:	23cc 0001 	ldr r1,[r0,+0xf]
  8c:	4433      	sub r2,r1,0
  8e:	0200      	beq 92 <_exit+0x2e>
  90:	0552      	jalr r1
  92:	250b 0062 	mov r1,0x628
  96:	10e2      	mov r0,r4
  98:	200b 1002 	movt r1,0x0
  9c:	0552      	jalr r1
  9e:	01a2      	nop

000000a0 <__global_impure_ptr>:
  a0:	01e0      	b a2 <__global_impure_ptr+0x2>
	...

000000a4 <___call_exitprocs>:
  a4:	540b 0002 	mov r2,0xa0
  a8:	97fc 0700 	strd r4,[sp],-0x7
  ac:	400b 1002 	movt r2,0x0
  b0:	567c 2400 	strd r10,[sp,+0x4]
  b4:	684c 2000 	ldr fp,[r2,+0x0]
  b8:	54fc 8400 	strd r34,[sp,+0x1]
  bc:	400b 8002 	mov r34,0x0
  c0:	157c 8400 	strd r32,[sp,+0x2]
  c4:	d77c 0400 	strd r6,[sp,+0x6]
  c8:	16fc 2400 	strd r8,[sp,+0x5]
  cc:	00ef 8002 	mov r32,r0
  d0:	c4e2      	mov r6,r1
  d2:	2c1b 8429 	add r33,fp,328
  d6:	202b 2002 	mov r9,0x1
  da:	400b 2002 	mov r10,0x0
  de:	400b 9002 	movt r34,0x0
  e2:	d5fc 2400 	strd lr,[sp,+0x3]
  e6:	ed4c 040a 	ldr r7,[fp,+0x52]
  ea:	1c33      	sub r0,r7,0
  ec:	4500      	beq 176 <___call_exitprocs+0xd2>
  ee:	64ef 9002 	mov r35,r33
  f2:	1cc4      	ldr r0,[r7,0x1]
  f4:	8393      	add r4,r0,-1
  f6:	3033      	sub r1,r4,0
  f8:	3c80      	blt 170 <___call_exitprocs+0xcc>
  fa:	a39b 0003 	add r5,r0,31
  fe:	1c1b 2011 	add r8,r7,136
 102:	b456      	lsl r5,r5,0x2
 104:	a29f 040a 	add r5,r8,r5
 108:	08e0      	b 118 <___call_exitprocs+0x74>
 10a:	3444      	ldr r1,[r5]
 10c:	073a      	sub r0,r1,r6
 10e:	0700      	beq 11c <___call_exitprocs+0x78>
 110:	9393      	add r4,r4,-1
 112:	b613      	add r5,r5,-4
 114:	33b3      	sub r1,r4,-1
 116:	2d00      	beq 170 <___call_exitprocs+0xcc>
 118:	3833      	sub r1,r6,0
 11a:	f810      	bne 10a <___call_exitprocs+0x66>
 11c:	5cc4      	ldr r2,[r7,0x1]
 11e:	343f 008a 	sub r1,r5,r8
 122:	3c9a      	add r1,r7,r1
 124:	4b93      	add r2,r2,-1
 126:	0a3a      	sub r0,r2,r4
 128:	474c 0103 	ldr r2,[r1,-0x1e]
 12c:	3900      	beq 19e <___call_exitprocs+0xfa>
 12e:	475c 2103 	str r10,[r1,-0x1e]
 132:	2833      	sub r1,r2,0
 134:	ee00      	beq 110 <___call_exitprocs+0x6c>
 136:	7d4c 000c 	ldr r3,[r7,+0x62]
 13a:	262f 040a 	lsl r1,r9,r4
 13e:	65da      	and r3,r1,r3
 140:	fccc 2000 	ldr r15,[r7,+0x1]
 144:	2b00      	beq 19a <___call_exitprocs+0xf6>
 146:	1dcc 000c 	ldr r0,[r7,+0x63]
 14a:	245a      	and r1,r1,r0
 14c:	2b10      	bne 1a2 <___call_exitprocs+0xfe>
 14e:	344c 0104 	ldr r1,[r5,-0x20]
 152:	00ef 1002 	mov r0,r32
 156:	0952      	jalr r2
 158:	3cc4      	ldr r1,[r7,0x1]
 15a:	07bf 008a 	sub r0,r1,r15
 15e:	c410      	bne e6 <___call_exitprocs+0x42>
 160:	0c4c 1000 	ldr r0,[r35,+0x0]
 164:	23ba      	sub r1,r0,r7
 166:	c010      	bne e6 <___call_exitprocs+0x42>
 168:	9393      	add r4,r4,-1
 16a:	b613      	add r5,r5,-4
 16c:	33b3      	sub r1,r4,-1
 16e:	d510      	bne 118 <___call_exitprocs+0x74>
 170:	083b 1000 	sub r0,r34,0
 174:	1b10      	bne 1aa <___call_exitprocs+0x106>
 176:	d76c 0400 	ldrd r6,[sp,+0x6]
 17a:	16ec 2400 	ldrd r8,[sp,+0x5]
 17e:	566c 2400 	ldrd r10,[sp,+0x4]
 182:	d5ec 2400 	ldrd lr,[sp,+0x3]
 186:	156c 8400 	ldrd r32,[sp,+0x2]
 18a:	54ec 8400 	ldrd r34,[sp,+0x1]
 18e:	b41b 2407 	add sp,sp,56
 192:	946c 0400 	ldrd r4,[sp,+0x0]
 196:	194f 0402 	rts
 19a:	0952      	jalr r2
 19c:	dee0      	b 158 <___call_exitprocs+0xb4>
 19e:	9cd4      	str r4,[r7,0x1]
 1a0:	c9e0      	b 132 <___call_exitprocs+0x8e>
 1a2:	144c 0104 	ldr r0,[r5,-0x20]
 1a6:	0952      	jalr r2
 1a8:	d8e0      	b 158 <___call_exitprocs+0xb4>
 1aa:	1cc4      	ldr r0,[r7,0x1]
 1ac:	2033      	sub r1,r0,0
 1ae:	0e10      	bne 1ca <___call_exitprocs+0x126>
 1b0:	3c44      	ldr r1,[r7]
 1b2:	0433      	sub r0,r1,0
 1b4:	1000      	beq 1d4 <___call_exitprocs+0x130>
 1b6:	1ce2      	mov r0,r7
 1b8:	2c5c 1000 	str r1,[r35]
 1bc:	095f 1002 	jalr r34
 1c0:	ec4c 1000 	ldr r7,[r35,+0x0]
 1c4:	3c33      	sub r1,r7,0
 1c6:	9610      	bne f2 <___call_exitprocs+0x4e>
 1c8:	d7e0      	b 176 <___call_exitprocs+0xd2>
 1ca:	1c44      	ldr r0,[r7]
 1cc:	7cef 8002 	mov r35,r7
 1d0:	e0e2      	mov r7,r0
 1d2:	f9e0      	b 1c4 <___call_exitprocs+0x120>
 1d4:	0003      	mov r0,0x0
 1d6:	fbe0 	b 1cc <___call_exitprocs+0x128>

Disassembly of section NEW_LIB_WR:

000001d8 <__impure_ptr>:
 1d8:	01e0      	b 1da <__impure_ptr+0x2>
 1da:	0000      	beq 1da <__impure_ptr+0x2>
 1dc:	0000      	beq 1dc <__impure_ptr+0x4>
	...

000001e0 <_impure_data>:
 1e0:	0000      	beq 1e0 <_impure_data>
 1e2:	0000      	beq 1e2 <_impure_data+0x2>
 1e4:	04d8 0000 	bblte 1ec <_impure_data+0xc>
 1e8:	0548 0000 	blteu 1f2 <_impure_data+0x12>
 1ec:	05b8 0000 	bbne 1f6 <_impure_data+0x16>
	...
 214:	09a8 0000 	bbeq 226 <_impure_data+0x46>
	...
 290:	0001      	ldrb r0,[r0,r0]
 292:	0000      	beq 292 <_impure_data+0xb2>
 294:	0000      	beq 294 <_impure_data+0xb4>
 296:	0000      	beq 296 <_impure_data+0xb6>
 298:	330e      	asr r1,r4,0x18
 29a:	abcd 1234 	*unknown*
 29e:	e66d deec 	*unknown*
 2a2:	0005      	ldrb r0,[r0],r0
 2a4:	000b 0000 	*unknown*
	...

Disassembly of section GNU_C_BUILTIN_LIB_RO:

00000628 <__exit>:
 628:	0fe2      	trap 0x3
 62a:	ffe8 ffff 	b 628 <__exit>

Disassembly of section .init:

0000062e <init>:
 62e:	d65c 2700 	str lr,[sp],-0x4
 632:	1e8b 0082 	mov r0,0x8f4
 636:	000b 1002 	movt r0,0x0
 63a:	0152      	jalr r0
 63c:	060b 0092 	mov r0,0x930
 640:	000b 1002 	movt r0,0x0
 644:	0152      	jalr r0
 646:	d64c 2400 	ldr lr,[sp,+0x4]
 64a:	b41b 2402 	add sp,sp,16
 64e:	194f 0402 	rts

Disassembly of section .text:

00000660 <_main>:
 660:	460b 0072 	mov r2,0x730
 664:	022b 0112 	mov r0,0x1111
 668:	222b 0112 	mov r1,0x1111
 66c:	41eb 1812 	movt r2,0x810f
 670:	022b 1112 	movt r0,0x1111
 674:	222b 1112 	movt r1,0x1111
 678:	0874      	strd r0,[r2]
 67a:	600b 0002 	mov r3,0x0
 67e:	132b 0992 	mov r0,0x9999
 682:	332b 0992 	mov r1,0x9999
 686:	132b 1992 	movt r0,0x9999
 68a:	332b 1992 	movt r1,0x9999
 68e:	600b 18e2 	movt r3,0x8e00
 692:	0c74      	strd r0,[r3]
 694:	044b 0222 	mov r0,0x2222
 698:	244b 0222 	mov r1,0x2222
 69c:	044b 1222 	movt r0,0x2222
 6a0:	244b 1222 	movt r1,0x2222
 6a4:	0874      	strd r0,[r2]
 6a6:	610b 0002 	mov r3,0x8
 6aa:	154b 0aa2 	mov r0,0xaaaa
 6ae:	354b 0aa2 	mov r1,0xaaaa
 6b2:	154b 1aa2 	movt r0,0xaaaa
 6b6:	354b 1aa2 	movt r1,0xaaaa
 6ba:	600b 18e2 	movt r3,0x8e00
 6be:	0c74      	strd r0,[r3]
 6c0:	066b 0332 	mov r0,0x3333
 6c4:	266b 0332 	mov r1,0x3333
 6c8:	066b 1332 	movt r0,0x3333
 6cc:	266b 1332 	movt r1,0x3333
 6d0:	0874      	strd r0,[r2]
 6d2:	620b 0002 	mov r3,0x10
 6d6:	176b 0bb2 	mov r0,0xbbbb
 6da:	376b 0bb2 	mov r1,0xbbbb
 6de:	176b 1bb2 	movt r0,0xbbbb
 6e2:	376b 1bb2 	movt r1,0xbbbb
 6e6:	600b 18e2 	movt r3,0x8e00
 6ea:	0c74      	strd r0,[r3]
 6ec:	088b 0442 	mov r0,0x4444
 6f0:	288b 0442 	mov r1,0x4444
 6f4:	088b 1442 	movt r0,0x4444
 6f8:	288b 1442 	movt r1,0x4444
 6fc:	0874      	strd r0,[r2]
 6fe:	630b 0002 	mov r3,0x18
 702:	198b 0cc2 	mov r0,0xcccc
 706:	398b 0cc2 	mov r1,0xcccc
 70a:	198b 1cc2 	movt r0,0xcccc
 70e:	398b 1cc2 	movt r1,0xcccc
 712:	600b 18e2 	movt r3,0x8e00
 716:	0c74      	strd r0,[r3]
 718:	0aab 0552 	mov r0,0x5555
 71c:	2aab 0552 	mov r1,0x5555
 720:	0aab 1552 	movt r0,0x5555
 724:	2aab 1552 	movt r1,0x5555
 728:	0874      	strd r0,[r2]
 72a:	640b 0002 	mov r3,0x20
 72e:	1bab 0dd2 	mov r0,0xdddd
 732:	3bab 0dd2 	mov r1,0xdddd
 736:	1bab 1dd2 	movt r0,0xdddd
 73a:	3bab 1dd2 	movt r1,0xdddd
 73e:	600b 18e2 	movt r3,0x8e00
 742:	0c74      	strd r0,[r3]
 744:	0ccb 0662 	mov r0,0x6666
 748:	2ccb 0662 	mov r1,0x6666
 74c:	0ccb 1662 	movt r0,0x6666
 750:	2ccb 1662 	movt r1,0x6666
 754:	0874      	strd r0,[r2]
 756:	650b 0002 	mov r3,0x28
 75a:	1dcb 0ee2 	mov r0,0xeeee
 75e:	3dcb 0ee2 	mov r1,0xeeee
 762:	1dcb 1ee2 	movt r0,0xeeee
 766:	3dcb 1ee2 	movt r1,0xeeee
 76a:	600b 18e2 	movt r3,0x8e00
 76e:	0c74      	strd r0,[r3]
 770:	0eeb 0772 	mov r0,0x7777
 774:	2eeb 0772 	mov r1,0x7777
 778:	0eeb 1772 	movt r0,0x7777
 77c:	2eeb 1772 	movt r1,0x7777
 780:	0874      	strd r0,[r2]
 782:	194f 0402 	rts
 786:	01a2      	nop
	...

00000790 <_epiphany_start>:
 790:	be0b 27f2 	mov sp,0x7ff0
 794:	a00b 3002 	movt sp,0x0
 798:	600b 2002 	mov fp,0x0
 79c:	160b 0092 	mov r0,0x9b0
 7a0:	000b 1002 	movt r0,0x0
 7a4:	370b 0092 	mov r1,0x9b8
 7a8:	200b 1002 	movt r1,0x0
 7ac:	4003      	mov r2,0x0
 7ae:	6003      	mov r3,0x0
 7b0:	40fc 0200 	strd r2,[r0],+0x1
 7b4:	a43a      	sub r5,r1,r0
 7b6:	fd10      	bne 7b0 <_epiphany_start+0x20>
 7b8:	5b0b 0012 	mov r2,0x1d8
 7bc:	400b 1002 	movt r2,0x0
 7c0:	4844      	ldr r2,[r2]
 7c2:	2e8b 0092 	mov r1,0x974
 7c6:	200b 1002 	movt r1,0x0
 7ca:	0a1b 0029 	add r0,r2,332
 7ce:	00dc 0100 	str r0,[r0,-0x1]
 7d2:	0023      	mov r0,0x1
 7d4:	097c 0005 	strd r0,[r2,+0x2a]
 7d8:	45cb 0062 	mov r2,0x62e
 7dc:	400b 1002 	movt r2,0x0
 7e0:	0952      	jalr r2
 7e2:	1feb 0ff2 	mov r0,0xffff
 7e6:	050f 0402 	movts imask,r0
 7ea:	1f0b 0072 	mov r0,0x7f8
 7ee:	000b 1002 	movt r0,0x0
 7f2:	010f 0402 	movts iret,r0
 7f6:	01d2      	rti

000007f8 <RDS>:
 7f8:	0003      	mov r0,0x0
 7fa:	2003      	mov r1,0x0
 7fc:	4003      	mov r2,0x0
 7fe:	6c0b 0062 	mov r3,0x660
 802:	600b 1002 	movt r3,0x0
 806:	0d52      	jalr r3
 808:	6c8b 0002 	mov r3,0x64
 80c:	600b 1002 	movt r3,0x0
 810:	0d52      	jalr r3
 812:	01b2      	idle
	...

00000820 <_deregister_tm_clones>:
 820:	150b 0092 	mov r0,0x9a8
 824:	356b 0092 	mov r1,0x9ab
 828:	000b 1002 	movt r0,0x0
 82c:	200b 1002 	movt r1,0x0
 830:	243a      	sub r1,r1,r0
 832:	473b 0000 	sub r2,r1,6
 836:	0320      	bgtu 83c <_deregister_tm_clones+0x1c>
 838:	194f 0402 	rts
 83c:	200b 0002 	mov r1,0x0
 840:	200b 1002 	movt r1,0x0
 844:	4433      	sub r2,r1,0
 846:	f900      	beq 838 <_deregister_tm_clones+0x18>
 848:	0542      	jr r1
 84a:	01a2      	nop

0000084c <_register_tm_clones>:
 84c:	150b 0092 	mov r0,0x9a8
 850:	350b 0092 	mov r1,0x9a8
 854:	000b 1002 	movt r0,0x0
 858:	200b 1002 	movt r1,0x0
 85c:	243a      	sub r1,r1,r0
 85e:	244e      	asr r1,r1,0x2
 860:	47e6      	lsr r2,r1,0x1f
 862:	289a      	add r1,r2,r1
 864:	242e      	asr r1,r1,0x1
 866:	4433      	sub r2,r1,0
 868:	0310      	bne 86e <_register_tm_clones+0x22>
 86a:	194f 0402 	rts
 86e:	400b 0002 	mov r2,0x0
 872:	400b 1002 	movt r2,0x0
 876:	6833      	sub r3,r2,0
 878:	f900      	beq 86a <_register_tm_clones+0x1e>
 87a:	0942      	jr r2

0000087c <___do_global_dtors_aux>:
 87c:	95fc 0700 	strd r4,[sp],-0x3
 880:	d57c 0400 	strd r6,[sp,+0x2]
 884:	f60b 0092 	mov r7,0x9b0
 888:	e00b 1002 	movt r7,0x0
 88c:	1c04      	ldrb r0,[r7]
 88e:	75dc 2400 	str fp,[sp,+0x3]
 892:	d55c 2400 	str lr,[sp,+0x2]
 896:	2033      	sub r1,r0,0
 898:	2210      	bne 8dc <___do_global_dtors_aux+0x60>
 89a:	d30b 0092 	mov r6,0x998
 89e:	b38b 0092 	mov r5,0x99c
 8a2:	c00b 1002 	movt r6,0x0
 8a6:	968b 0092 	mov r4,0x9b4
 8aa:	a00b 1002 	movt r5,0x0
 8ae:	b73a      	sub r5,r5,r6
 8b0:	800b 1002 	movt r4,0x0
 8b4:	b44e      	asr r5,r5,0x2
 8b6:	1044      	ldr r0,[r4]
 8b8:	b793      	add r5,r5,-1
 8ba:	22ba      	sub r1,r0,r5
 8bc:	0930      	bgteu 8ce <___do_global_dtors_aux+0x52>
 8be:	0093      	add r0,r0,1
 8c0:	2056      	lsl r1,r0,0x2
 8c2:	38c1      	ldr r1,[r6,r1]
 8c4:	1054      	str r0,[r4]
 8c6:	0552      	jalr r1
 8c8:	1044      	ldr r0,[r4]
 8ca:	22ba      	sub r1,r0,r5
 8cc:	f950      	bltu 8be <___do_global_dtors_aux+0x42>
 8ce:	040b 0082 	mov r0,0x820
 8d2:	000b 1002 	movt r0,0x0
 8d6:	0152      	jalr r0
 8d8:	0023      	mov r0,0x1
 8da:	1c14      	strb r0,[r7]
 8dc:	d56c 0400 	ldrd r6,[sp,+0x2]
 8e0:	75cc 2400 	ldr fp,[sp,+0x3]
 8e4:	d54c 2400 	ldr lr,[sp,+0x2]
 8e8:	b41b 2403 	add sp,sp,24
 8ec:	946c 0400 	ldrd r4,[sp,+0x0]
 8f0:	194f 0402 	rts

000008f4 <_frame_dummy>:
 8f4:	140b 0092 	mov r0,0x9a0
 8f8:	000b 1002 	movt r0,0x0
 8fc:	2044      	ldr r1,[r0]
 8fe:	755c 2700 	str fp,[sp],-0x2
 902:	d5dc 2400 	str lr,[sp,+0x3]
 906:	4433      	sub r2,r1,0
 908:	0800      	beq 918 <_frame_dummy+0x24>
 90a:	200b 0002 	mov r1,0x0
 90e:	200b 1002 	movt r1,0x0
 912:	4433      	sub r2,r1,0
 914:	0200      	beq 918 <_frame_dummy+0x24>
 916:	0552      	jalr r1
 918:	098b 0082 	mov r0,0x84c
 91c:	d5cc 2400 	ldr lr,[sp,+0x3]
 920:	754c 2400 	ldr fp,[sp,+0x2]
 924:	000b 1002 	movt r0,0x0
 928:	b41b 2401 	add sp,sp,8
 92c:	0142      	jr r0
 92e:	01a2      	nop

00000930 <___do_global_ctors_aux>:
 930:	128b 0092 	mov r0,0x994
 934:	000b 1002 	movt r0,0x0
 938:	00cc 0100 	ldr r0,[r0,-0x1]
 93c:	965c 0700 	str r4,[sp],-0x4
 940:	76dc 2400 	str fp,[sp,+0x5]
 944:	918b 0092 	mov r4,0x98c
 948:	d5dc 2400 	str lr,[sp,+0x3]
 94c:	23b3      	sub r1,r0,-1
 94e:	800b 1002 	movt r4,0x0
 952:	0600      	beq 95e <___do_global_ctors_aux+0x2e>
 954:	0152      	jalr r0
 956:	10cc 0300 	ldr r0,[r4],-0x1
 95a:	23b3      	sub r1,r0,-1
 95c:	fc10      	bne 954 <___do_global_ctors_aux+0x24>
 95e:	76cc 2400 	ldr fp,[sp,+0x5]
 962:	964c 0400 	ldr r4,[sp,+0x4]
 966:	d5cc 2400 	ldr lr,[sp,+0x3]
 96a:	b41b 2402 	add sp,sp,16
 96e:	194f 0402 	rts
 972:	01a2 	nop

Disassembly of section .fini:

00000974 <fini>:
 974:	d65c 2700 	str lr,[sp],-0x4
 978:	0f8b 0082 	mov r0,0x87c
 97c:	000b 1002 	movt r0,0x0
 980:	0152      	jalr r0
 982:	d64c 2400 	ldr lr,[sp,+0x4]
 986:	b41b 2402 	add sp,sp,16
 98a:	194f 0402 	rts
